target datalayout = "e-m:e-p270:32:32-p271:32:32-p272:64:64-i64:64-i128:128-f80:128-n8:16:32:64-S128"
target triple = "x86_64-pc-linux-gnu"

%struct.EState = type { ptr, i32, i32, i32, ptr, ptr, ptr, i32, ptr, ptr, ptr, ptr, i32, i32, i32, i32, i32, i32, i32, i32, i32, i32, [256 x i8], [256 x i8], i32, i32, i32, i32, i32, i32, i32, i32, [258 x i32], [18002 x i8], [18002 x i8], [6 x [258 x i8]], [6 x [258 x i32]], [6 x [258 x i32]], [258 x [4 x i32]] }

@BZ2_crc32Table = external global [256 x i32], align 16

; Function Attrs: nounwind uwtable
define internal void @add_pair_to_block(ptr noundef %0) #0 {
  %2 = alloca ptr, align 8
  %3 = alloca i32, align 4
  %4 = alloca i8, align 1
  store ptr %0, ptr %2, align 8
  %5 = load ptr, ptr %2, align 8
  %6 = getelementptr inbounds %struct.EState, ptr %5, i32 0, i32 13
  %7 = load i32, ptr %6, align 4
  %8 = trunc i32 %7 to i8
  store i8 %8, ptr %4, align 1
  store i32 0, ptr %3, align 4
  br label %9

9:                                                ; preds = %33, %1
  %10 = load i32, ptr %3, align 4
  %11 = load ptr, ptr %2, align 8
  %12 = getelementptr inbounds %struct.EState, ptr %11, i32 0, i32 14
  %13 = load i32, ptr %12, align 8
  %14 = icmp slt i32 %10, %13
  br i1 %14, label %15, label %36

15:                                               ; preds = %9
  %16 = load ptr, ptr %2, align 8
  %17 = getelementptr inbounds %struct.EState, ptr %16, i32 0, i32 26
  %18 = load i32, ptr %17, align 8
  %19 = shl i32 %18, 8
  %20 = load ptr, ptr %2, align 8
  %21 = getelementptr inbounds %struct.EState, ptr %20, i32 0, i32 26
  %22 = load i32, ptr %21, align 8
  %23 = lshr i32 %22, 24
  %24 = load i8, ptr %4, align 1
  %25 = zext i8 %24 to i32
  %26 = xor i32 %23, %25
  %27 = zext i32 %26 to i64
  %28 = getelementptr inbounds [256 x i32], ptr @BZ2_crc32Table, i64 0, i64 %27
  %29 = load i32, ptr %28, align 4
  %30 = xor i32 %19, %29
  %31 = load ptr, ptr %2, align 8
  %32 = getelementptr inbounds %struct.EState, ptr %31, i32 0, i32 26
  store i32 %30, ptr %32, align 8
  br label %33

33:                                               ; preds = %15
  %34 = load i32, ptr %3, align 4
  %35 = add nsw i32 %34, 1
  store i32 %35, ptr %3, align 4
  br label %9, !llvm.loop !9

36:                                               ; preds = %9
  %37 = load ptr, ptr %2, align 8
  %38 = getelementptr inbounds %struct.EState, ptr %37, i32 0, i32 22
  %39 = load ptr, ptr %2, align 8
  %40 = getelementptr inbounds %struct.EState, ptr %39, i32 0, i32 13
  %41 = load i32, ptr %40, align 4
  %42 = zext i32 %41 to i64
  %43 = getelementptr inbounds [256 x i8], ptr %38, i64 0, i64 %42
  store i8 1, ptr %43, align 1
  %44 = load ptr, ptr %2, align 8
  %45 = getelementptr inbounds %struct.EState, ptr %44, i32 0, i32 14
  %46 = load i32, ptr %45, align 8
  switch i32 %46, label %128 [
    i32 1, label %47
    i32 2, label %61
    i32 3, label %88
  ]

47:                                               ; preds = %36
  %48 = load i8, ptr %4, align 1
  %49 = load ptr, ptr %2, align 8
  %50 = getelementptr inbounds %struct.EState, ptr %49, i32 0, i32 9
  %51 = load ptr, ptr %50, align 8
  %52 = load ptr, ptr %2, align 8
  %53 = getelementptr inbounds %struct.EState, ptr %52, i32 0, i32 17
  %54 = load i32, ptr %53, align 4
  %55 = sext i32 %54 to i64
  %56 = getelementptr inbounds i8, ptr %51, i64 %55
  store i8 %48, ptr %56, align 1
  %57 = load ptr, ptr %2, align 8
  %58 = getelementptr inbounds %struct.EState, ptr %57, i32 0, i32 17
  %59 = load i32, ptr %58, align 4
  %60 = add nsw i32 %59, 1
  store i32 %60, ptr %58, align 4
  br label %206

61:                                               ; preds = %36
  %62 = load i8, ptr %4, align 1
  %63 = load ptr, ptr %2, align 8
  %64 = getelementptr inbounds %struct.EState, ptr %63, i32 0, i32 9
  %65 = load ptr, ptr %64, align 8
  %66 = load ptr, ptr %2, align 8
  %67 = getelementptr inbounds %struct.EState, ptr %66, i32 0, i32 17
  %68 = load i32, ptr %67, align 4
  %69 = sext i32 %68 to i64
  %70 = getelementptr inbounds i8, ptr %65, i64 %69
  store i8 %62, ptr %70, align 1
  %71 = load ptr, ptr %2, align 8
  %72 = getelementptr inbounds %struct.EState, ptr %71, i32 0, i32 17
  %73 = load i32, ptr %72, align 4
  %74 = add nsw i32 %73, 1
  store i32 %74, ptr %72, align 4
  %75 = load i8, ptr %4, align 1
  %76 = load ptr, ptr %2, align 8
  %77 = getelementptr inbounds %struct.EState, ptr %76, i32 0, i32 9
  %78 = load ptr, ptr %77, align 8
  %79 = load ptr, ptr %2, align 8
  %80 = getelementptr inbounds %struct.EState, ptr %79, i32 0, i32 17
  %81 = load i32, ptr %80, align 4
  %82 = sext i32 %81 to i64
  %83 = getelementptr inbounds i8, ptr %78, i64 %82
  store i8 %75, ptr %83, align 1
  %84 = load ptr, ptr %2, align 8
  %85 = getelementptr inbounds %struct.EState, ptr %84, i32 0, i32 17
  %86 = load i32, ptr %85, align 4
  %87 = add nsw i32 %86, 1
  store i32 %87, ptr %85, align 4
  br label %206

88:                                               ; preds = %36
  %89 = load i8, ptr %4, align 1
  %90 = load ptr, ptr %2, align 8
  %91 = getelementptr inbounds %struct.EState, ptr %90, i32 0, i32 9
  %92 = load ptr, ptr %91, align 8
  %93 = load ptr, ptr %2, align 8
  %94 = getelementptr inbounds %struct.EState, ptr %93, i32 0, i32 17
  %95 = load i32, ptr %94, align 4
  %96 = sext i32 %95 to i64
  %97 = getelementptr inbounds i8, ptr %92, i64 %96
  store i8 %89, ptr %97, align 1
  %98 = load ptr, ptr %2, align 8
  %99 = getelementptr inbounds %struct.EState, ptr %98, i32 0, i32 17
  %100 = load i32, ptr %99, align 4
  %101 = add nsw i32 %100, 1
  store i32 %101, ptr %99, align 4
  %102 = load i8, ptr %4, align 1
  %103 = load ptr, ptr %2, align 8
  %104 = getelementptr inbounds %struct.EState, ptr %103, i32 0, i32 9
  %105 = load ptr, ptr %104, align 8
  %106 = load ptr, ptr %2, align 8
  %107 = getelementptr inbounds %struct.EState, ptr %106, i32 0, i32 17
  %108 = load i32, ptr %107, align 4
  %109 = sext i32 %108 to i64
  %110 = getelementptr inbounds i8, ptr %105, i64 %109
  store i8 %102, ptr %110, align 1
  %111 = load ptr, ptr %2, align 8
  %112 = getelementptr inbounds %struct.EState, ptr %111, i32 0, i32 17
  %113 = load i32, ptr %112, align 4
  %114 = add nsw i32 %113, 1
  store i32 %114, ptr %112, align 4
  %115 = load i8, ptr %4, align 1
  %116 = load ptr, ptr %2, align 8
  %117 = getelementptr inbounds %struct.EState, ptr %116, i32 0, i32 9
  %118 = load ptr, ptr %117, align 8
  %119 = load ptr, ptr %2, align 8
  %120 = getelementptr inbounds %struct.EState, ptr %119, i32 0, i32 17
  %121 = load i32, ptr %120, align 4
  %122 = sext i32 %121 to i64
  %123 = getelementptr inbounds i8, ptr %118, i64 %122
  store i8 %115, ptr %123, align 1
  %124 = load ptr, ptr %2, align 8
  %125 = getelementptr inbounds %struct.EState, ptr %124, i32 0, i32 17
  %126 = load i32, ptr %125, align 4
  %127 = add nsw i32 %126, 1
  store i32 %127, ptr %125, align 4
  br label %206

128:                                              ; preds = %36
  %129 = load ptr, ptr %2, align 8
  %130 = getelementptr inbounds %struct.EState, ptr %129, i32 0, i32 22
  %131 = load ptr, ptr %2, align 8
  %132 = getelementptr inbounds %struct.EState, ptr %131, i32 0, i32 14
  %133 = load i32, ptr %132, align 8
  %134 = sub nsw i32 %133, 4
  %135 = sext i32 %134 to i64
  %136 = getelementptr inbounds [256 x i8], ptr %130, i64 0, i64 %135
  store i8 1, ptr %136, align 1
  %137 = load i8, ptr %4, align 1
  %138 = load ptr, ptr %2, align 8
  %139 = getelementptr inbounds %struct.EState, ptr %138, i32 0, i32 9
  %140 = load ptr, ptr %139, align 8
  %141 = load ptr, ptr %2, align 8
  %142 = getelementptr inbounds %struct.EState, ptr %141, i32 0, i32 17
  %143 = load i32, ptr %142, align 4
  %144 = sext i32 %143 to i64
  %145 = getelementptr inbounds i8, ptr %140, i64 %144
  store i8 %137, ptr %145, align 1
  %146 = load ptr, ptr %2, align 8
  %147 = getelementptr inbounds %struct.EState, ptr %146, i32 0, i32 17
  %148 = load i32, ptr %147, align 4
  %149 = add nsw i32 %148, 1
  store i32 %149, ptr %147, align 4
  %150 = load i8, ptr %4, align 1
  %151 = load ptr, ptr %2, align 8
  %152 = getelementptr inbounds %struct.EState, ptr %151, i32 0, i32 9
  %153 = load ptr, ptr %152, align 8
  %154 = load ptr, ptr %2, align 8
  %155 = getelementptr inbounds %struct.EState, ptr %154, i32 0, i32 17
  %156 = load i32, ptr %155, align 4
  %157 = sext i32 %156 to i64
  %158 = getelementptr inbounds i8, ptr %153, i64 %157
  store i8 %150, ptr %158, align 1
  %159 = load ptr, ptr %2, align 8
  %160 = getelementptr inbounds %struct.EState, ptr %159, i32 0, i32 17
  %161 = load i32, ptr %160, align 4
  %162 = add nsw i32 %161, 1
  store i32 %162, ptr %160, align 4
  %163 = load i8, ptr %4, align 1
  %164 = load ptr, ptr %2, align 8
  %165 = getelementptr inbounds %struct.EState, ptr %164, i32 0, i32 9
  %166 = load ptr, ptr %165, align 8
  %167 = load ptr, ptr %2, align 8
  %168 = getelementptr inbounds %struct.EState, ptr %167, i32 0, i32 17
  %169 = load i32, ptr %168, align 4
  %170 = sext i32 %169 to i64
  %171 = getelementptr inbounds i8, ptr %166, i64 %170
  store i8 %163, ptr %171, align 1
  %172 = load ptr, ptr %2, align 8
  %173 = getelementptr inbounds %struct.EState, ptr %172, i32 0, i32 17
  %174 = load i32, ptr %173, align 4
  %175 = add nsw i32 %174, 1
  store i32 %175, ptr %173, align 4
  %176 = load i8, ptr %4, align 1
  %177 = load ptr, ptr %2, align 8
  %178 = getelementptr inbounds %struct.EState, ptr %177, i32 0, i32 9
  %179 = load ptr, ptr %178, align 8
  %180 = load ptr, ptr %2, align 8
  %181 = getelementptr inbounds %struct.EState, ptr %180, i32 0, i32 17
  %182 = load i32, ptr %181, align 4
  %183 = sext i32 %182 to i64
  %184 = getelementptr inbounds i8, ptr %179, i64 %183
  store i8 %176, ptr %184, align 1
  %185 = load ptr, ptr %2, align 8
  %186 = getelementptr inbounds %struct.EState, ptr %185, i32 0, i32 17
  %187 = load i32, ptr %186, align 4
  %188 = add nsw i32 %187, 1
  store i32 %188, ptr %186, align 4
  %189 = load ptr, ptr %2, align 8
  %190 = getelementptr inbounds %struct.EState, ptr %189, i32 0, i32 14
  %191 = load i32, ptr %190, align 8
  %192 = sub nsw i32 %191, 4
  %193 = trunc i32 %192 to i8
  %194 = load ptr, ptr %2, align 8
  %195 = getelementptr inbounds %struct.EState, ptr %194, i32 0, i32 9
  %196 = load ptr, ptr %195, align 8
  %197 = load ptr, ptr %2, align 8
  %198 = getelementptr inbounds %struct.EState, ptr %197, i32 0, i32 17
  %199 = load i32, ptr %198, align 4
  %200 = sext i32 %199 to i64
  %201 = getelementptr inbounds i8, ptr %196, i64 %200
  store i8 %193, ptr %201, align 1
  %202 = load ptr, ptr %2, align 8
  %203 = getelementptr inbounds %struct.EState, ptr %202, i32 0, i32 17
  %204 = load i32, ptr %203, align 4
  %205 = add nsw i32 %204, 1
  store i32 %205, ptr %203, align 4
  br label %206

206:                                              ; preds = %128, %88, %61, %47
  ret void
}