; Function Attrs: nofree norecurse nosync nounwind memory(readwrite, inaccessiblemem: none) uwtable
define internal fastcc void @add_pair_to_block(ptr noundef captures(none) %0) unnamed_addr #13 {
  %2 = getelementptr inbounds nuw i8, ptr %0, i64 92
  %3 = load i32, ptr %2, align 4
  %4 = trunc i32 %3 to i8
  %5 = getelementptr inbounds nuw i8, ptr %0, i64 96
  %6 = load i32, ptr %5, align 8
  %7 = icmp sgt i32 %6, 0
  br i1 %7, label %.lr.ph, label %._crit_edge

.lr.ph:                                           ; preds = %1
  %8 = getelementptr inbounds nuw i8, ptr %0, i64 648
  %9 = and i32 %3, 255
  %.promoted = load i32, ptr %8, align 8
  br label %10

10:                                               ; preds = %.lr.ph, %10
  %11 = phi i32 [ %.promoted, %.lr.ph ], [ %18, %10 ]
  %.057 = phi i32 [ 0, %.lr.ph ], [ %19, %10 ]
  %12 = shl i32 %11, 8
  %13 = lshr i32 %11, 24
  %14 = xor i32 %13, %9
  %15 = zext nneg i32 %14 to i64
  %16 = getelementptr inbounds nuw [256 x i32], ptr @BZ2_crc32Table, i64 0, i64 %15
  %17 = load i32, ptr %16, align 4
  %18 = xor i32 %12, %17
  store i32 %18, ptr %8, align 8
  %19 = add nuw nsw i32 %.057, 1
  %exitcond.not = icmp eq i32 %19, %6
  br i1 %exitcond.not, label %._crit_edge, label %10, !llvm.loop !8

._crit_edge:                                      ; preds = %10, %1
  %20 = getelementptr inbounds nuw i8, ptr %0, i64 128
  %21 = zext i32 %3 to i64
  %22 = getelementptr inbounds nuw [256 x i8], ptr %20, i64 0, i64 %21
  store i8 1, ptr %22, align 1
  switch i32 %6, label %65 [
    i32 1, label %23
    i32 2, label %32
    i32 3, label %46
  ]

23:                                               ; preds = %._crit_edge
  %24 = getelementptr inbounds nuw i8, ptr %0, i64 64
  %25 = load ptr, ptr %24, align 8
  %26 = getelementptr inbounds nuw i8, ptr %0, i64 108
  %27 = load i32, ptr %26, align 4
  %28 = sext i32 %27 to i64
  %29 = getelementptr inbounds i8, ptr %25, i64 %28
  store i8 %4, ptr %29, align 1
  %30 = load i32, ptr %26, align 4
  %31 = add nsw i32 %30, 1
  store i32 %31, ptr %26, align 4
  br label %100

32:                                               ; preds = %._crit_edge
  %33 = getelementptr inbounds nuw i8, ptr %0, i64 64
  %34 = load ptr, ptr %33, align 8
  %35 = getelementptr inbounds nuw i8, ptr %0, i64 108
  %36 = load i32, ptr %35, align 4
  %37 = sext i32 %36 to i64
  %38 = getelementptr inbounds i8, ptr %34, i64 %37
  store i8 %4, ptr %38, align 1
  %39 = load i32, ptr %35, align 4
  %40 = add nsw i32 %39, 1
  store i32 %40, ptr %35, align 4
  %41 = load ptr, ptr %33, align 8
  %42 = sext i32 %40 to i64
  %43 = getelementptr inbounds i8, ptr %41, i64 %42
  store i8 %4, ptr %43, align 1
  %44 = load i32, ptr %35, align 4
  %45 = add nsw i32 %44, 1
  store i32 %45, ptr %35, align 4
  br label %100

46:                                               ; preds = %._crit_edge
  %47 = getelementptr inbounds nuw i8, ptr %0, i64 64
  %48 = load ptr, ptr %47, align 8
  %49 = getelementptr inbounds nuw i8, ptr %0, i64 108
  %50 = load i32, ptr %49, align 4
  %51 = sext i32 %50 to i64
  %52 = getelementptr inbounds i8, ptr %48, i64 %51
  store i8 %4, ptr %52, align 1
  %53 = load i32, ptr %49, align 4
  %54 = add nsw i32 %53, 1
  store i32 %54, ptr %49, align 4
  %55 = load ptr, ptr %47, align 8
  %56 = sext i32 %54 to i64
  %57 = getelementptr inbounds i8, ptr %55, i64 %56
  store i8 %4, ptr %57, align 1
  %58 = load i32, ptr %49, align 4
  %59 = add nsw i32 %58, 1
  store i32 %59, ptr %49, align 4
  %60 = load ptr, ptr %47, align 8
  %61 = sext i32 %59 to i64
  %62 = getelementptr inbounds i8, ptr %60, i64 %61
  store i8 %4, ptr %62, align 1
  %63 = load i32, ptr %49, align 4
  %64 = add nsw i32 %63, 1
  store i32 %64, ptr %49, align 4
  br label %100

65:                                               ; preds = %._crit_edge
  %66 = add nsw i32 %6, -4
  %67 = sext i32 %66 to i64
  %68 = getelementptr inbounds [256 x i8], ptr %20, i64 0, i64 %67
  store i8 1, ptr %68, align 1
  %69 = getelementptr inbounds nuw i8, ptr %0, i64 64
  %70 = load ptr, ptr %69, align 8
  %71 = getelementptr inbounds nuw i8, ptr %0, i64 108
  %72 = load i32, ptr %71, align 4
  %73 = sext i32 %72 to i64
  %74 = getelementptr inbounds i8, ptr %70, i64 %73
  store i8 %4, ptr %74, align 1
  %75 = load i32, ptr %71, align 4
  %76 = add nsw i32 %75, 1
  store i32 %76, ptr %71, align 4
  %77 = load ptr, ptr %69, align 8
  %78 = sext i32 %76 to i64
  %79 = getelementptr inbounds i8, ptr %77, i64 %78
  store i8 %4, ptr %79, align 1
  %80 = load i32, ptr %71, align 4
  %81 = add nsw i32 %80, 1
  store i32 %81, ptr %71, align 4
  %82 = load ptr, ptr %69, align 8
  %83 = sext i32 %81 to i64
  %84 = getelementptr inbounds i8, ptr %82, i64 %83
  store i8 %4, ptr %84, align 1
  %85 = load i32, ptr %71, align 4
  %86 = add nsw i32 %85, 1
  store i32 %86, ptr %71, align 4
  %87 = load ptr, ptr %69, align 8
  %88 = sext i32 %86 to i64
  %89 = getelementptr inbounds i8, ptr %87, i64 %88
  store i8 %4, ptr %89, align 1
  %90 = load i32, ptr %71, align 4
  %91 = add nsw i32 %90, 1
  store i32 %91, ptr %71, align 4
  %92 = load i32, ptr %5, align 8
  %93 = trunc i32 %92 to i8
  %94 = add i8 %93, -4
  %95 = load ptr, ptr %69, align 8
  %96 = sext i32 %91 to i64
  %97 = getelementptr inbounds i8, ptr %95, i64 %96
  store i8 %94, ptr %97, align 1
  %98 = load i32, ptr %71, align 4
  %99 = add nsw i32 %98, 1
  store i32 %99, ptr %71, align 4
  br label %100

100:                                              ; preds = %65, %46, %32, %23
  ret void
}